; Function Attrs: mustprogress nounwind uwtable
define internal fastcc void @"_ZZN5clang14TextNodeDumper17dumpCleanupObjectERKN4llvm12PointerUnionIJPNS_9BlockDeclEPNS_19CompoundLiteralExprEEEEENK3$_0clEv"(ptr nocapture noundef nonnull readonly align 8 dereferenceable(16) %0) unnamed_addr #0 align 2 {
  %2 = load ptr, ptr %0, align 8
  %3 = getelementptr inbounds nuw i8, ptr %2, i64 1096
  %4 = load ptr, ptr %3, align 8
  %5 = getelementptr inbounds nuw i8, ptr %4, i64 24
  %6 = load ptr, ptr %5, align 8
  %7 = getelementptr inbounds nuw i8, ptr %4, i64 32
  %8 = load ptr, ptr %7, align 8
  %9 = ptrtoint ptr %6 to i64
  %10 = ptrtoint ptr %8 to i64
  %11 = sub i64 %9, %10
  %12 = icmp ult i64 %11, 8
  br i1 %12, label %13, label %15

13:                                               ; preds = %1
  %14 = tail call noundef nonnull align 8 dereferenceable(48) ptr @_ZN4llvm11raw_ostream5writeEPKcm(ptr noundef nonnull align 8 dereferenceable(48) %4, ptr noundef nonnull @.str.1147, i64 noundef 8) #18
  br label %_ZN4llvm11raw_ostreamlsEPKc.exit

15:                                               ; preds = %1
  store i64 2337497323546176611, ptr %8, align 1
  %16 = load ptr, ptr %7, align 8
  %17 = getelementptr inbounds i8, ptr %16, i64 8
  store ptr %17, ptr %7, align 8
  br label %_ZN4llvm11raw_ostreamlsEPKc.exit

_ZN4llvm11raw_ostreamlsEPKc.exit:                 ; preds = %13, %15
  %18 = load ptr, ptr %3, align 8
  %19 = getelementptr inbounds nuw i8, ptr %2, i64 1104
  %20 = load i8, ptr %19, align 8
  %21 = trunc i8 %20 to i1
  br i1 %21, label %22, label %_ZN5clang10ColorScopeC2ERN4llvm11raw_ostreamEbNS_13TerminalColorE.exit

22:                                               ; preds = %_ZN4llvm11raw_ostreamlsEPKc.exit
  %23 = load ptr, ptr %18, align 8
  %24 = getelementptr inbounds i8, ptr %23, i64 24
  %25 = load ptr, ptr %24, align 8
  %26 = tail call noundef nonnull align 8 dereferenceable(48) ptr %25(ptr noundef nonnull align 8 dereferenceable(48) %18, i32 noundef 5, i1 noundef zeroext true, i1 noundef zeroext false) #18
  %.pre = load ptr, ptr %3, align 8
  br label %_ZN5clang10ColorScopeC2ERN4llvm11raw_ostreamEbNS_13TerminalColorE.exit

_ZN5clang10ColorScopeC2ERN4llvm11raw_ostreamEbNS_13TerminalColorE.exit: ; preds = %_ZN4llvm11raw_ostreamlsEPKc.exit, %22
  %27 = phi ptr [ %18, %_ZN4llvm11raw_ostreamlsEPKc.exit ], [ %.pre, %22 ]
  %28 = getelementptr inbounds nuw i8, ptr %0, i64 8
  %29 = load ptr, ptr %28, align 8
  %30 = tail call noundef ptr @_ZNK5clang4Stmt16getStmtClassNameEv(ptr noundef nonnull align 8 dereferenceable(8) %29) #18
  %.not.i.i = icmp eq ptr %30, null
  br i1 %.not.i.i, label %_ZN4llvm11raw_ostreamlsEPKc.exit3, label %_ZN4llvm9StringRefC2EPKc.exit.i

_ZN4llvm9StringRefC2EPKc.exit.i:                  ; preds = %_ZN5clang10ColorScopeC2ERN4llvm11raw_ostreamEbNS_13TerminalColorE.exit
  %31 = tail call noundef i64 @strlen(ptr noundef nonnull dereferenceable(1) %30) #18
  %32 = getelementptr inbounds nuw i8, ptr %27, i64 24
  %33 = load ptr, ptr %32, align 8
  %34 = getelementptr inbounds nuw i8, ptr %27, i64 32
  %35 = load ptr, ptr %34, align 8
  %36 = ptrtoint ptr %33 to i64
  %37 = ptrtoint ptr %35 to i64
  %38 = sub i64 %36, %37
  %39 = icmp ugt i64 %31, %38
  br i1 %39, label %40, label %42

40:                                               ; preds = %_ZN4llvm9StringRefC2EPKc.exit.i
  %41 = tail call noundef nonnull align 8 dereferenceable(48) ptr @_ZN4llvm11raw_ostream5writeEPKcm(ptr noundef nonnull align 8 dereferenceable(48) %27, ptr noundef nonnull %30, i64 noundef %31) #18
  br label %_ZN4llvm11raw_ostreamlsEPKc.exit3

42:                                               ; preds = %_ZN4llvm9StringRefC2EPKc.exit.i
  %.not.i2.i1 = icmp eq i64 %31, 0
  br i1 %.not.i2.i1, label %_ZN4llvm11raw_ostreamlsEPKc.exit3, label %43

43:                                               ; preds = %42
  tail call void @llvm.memcpy.p0.p0.i64(ptr align 1 %35, ptr nonnull align 1 %30, i64 %31, i1 false)
  %44 = load ptr, ptr %34, align 8
  %45 = getelementptr inbounds i8, ptr %44, i64 %31
  store ptr %45, ptr %34, align 8
  br label %_ZN4llvm11raw_ostreamlsEPKc.exit3

_ZN4llvm11raw_ostreamlsEPKc.exit3:                ; preds = %_ZN5clang10ColorScopeC2ERN4llvm11raw_ostreamEbNS_13TerminalColorE.exit, %40, %42, %43
  br i1 %21, label %46, label %_ZN5clang10ColorScopeD2Ev.exit

46:                                               ; preds = %_ZN4llvm11raw_ostreamlsEPKc.exit3
  %47 = load ptr, ptr %18, align 8
  %48 = getelementptr inbounds i8, ptr %47, i64 32
  %49 = load ptr, ptr %48, align 8
  %50 = tail call noundef nonnull align 8 dereferenceable(48) ptr %49(ptr noundef nonnull align 8 dereferenceable(48) %18) #18
  br label %_ZN5clang10ColorScopeD2Ev.exit

_ZN5clang10ColorScopeD2Ev.exit:                   ; preds = %_ZN4llvm11raw_ostreamlsEPKc.exit3, %46
  %51 = load ptr, ptr %28, align 8
  %52 = load ptr, ptr %3, align 8
  %53 = load i8, ptr %19, align 8
  %54 = trunc i8 %53 to i1
  br i1 %54, label %55, label %_ZN5clang10ColorScopeC2ERN4llvm11raw_ostreamEbNS_13TerminalColorE.exit.i

55:                                               ; preds = %_ZN5clang10ColorScopeD2Ev.exit
  %56 = load ptr, ptr %52, align 8
  %57 = getelementptr inbounds i8, ptr %56, i64 24
  %58 = load ptr, ptr %57, align 8
  %59 = tail call noundef nonnull align 8 dereferenceable(48) ptr %58(ptr noundef nonnull align 8 dereferenceable(48) %52, i32 noundef 3, i1 noundef zeroext false, i1 noundef zeroext false) #18
  %.pre.i = load ptr, ptr %3, align 8
  br label %_ZN5clang10ColorScopeC2ERN4llvm11raw_ostreamEbNS_13TerminalColorE.exit.i

_ZN5clang10ColorScopeC2ERN4llvm11raw_ostreamEbNS_13TerminalColorE.exit.i: ; preds = %55, %_ZN5clang10ColorScopeD2Ev.exit
  %60 = phi ptr [ %52, %_ZN5clang10ColorScopeD2Ev.exit ], [ %.pre.i, %55 ]
  %61 = getelementptr inbounds nuw i8, ptr %60, i64 32
  %62 = load ptr, ptr %61, align 8
  %63 = getelementptr inbounds nuw i8, ptr %60, i64 24
  %64 = load ptr, ptr %63, align 8
  %.not.i.i4 = icmp ult ptr %62, %64
  br i1 %.not.i.i4, label %67, label %65

65:                                               ; preds = %_ZN5clang10ColorScopeC2ERN4llvm11raw_ostreamEbNS_13TerminalColorE.exit.i
  %66 = tail call noundef nonnull align 8 dereferenceable(48) ptr @_ZN4llvm11raw_ostream5writeEh(ptr noundef nonnull align 8 dereferenceable(48) %60, i8 noundef zeroext 32) #18
  br label %_ZN4llvm11raw_ostreamlsEc.exit.i

67:                                               ; preds = %_ZN5clang10ColorScopeC2ERN4llvm11raw_ostreamEbNS_13TerminalColorE.exit.i
  %68 = getelementptr inbounds i8, ptr %62, i64 1
  store ptr %68, ptr %61, align 8
  store i8 32, ptr %62, align 1
  br label %_ZN4llvm11raw_ostreamlsEc.exit.i

_ZN4llvm11raw_ostreamlsEc.exit.i:                 ; preds = %67, %65
  %.0.i.i5 = phi ptr [ %66, %65 ], [ %60, %67 ]
  %69 = tail call noundef nonnull align 8 dereferenceable(48) ptr @_ZN4llvm11raw_ostreamlsEPKv(ptr noundef nonnull align 8 dereferenceable(48) %.0.i.i5, ptr noundef %51) #18
  br i1 %54, label %70, label %_ZN5clang14TextNodeDumper11dumpPointerEPKv.exit

70:                                               ; preds = %_ZN4llvm11raw_ostreamlsEc.exit.i
  %71 = load ptr, ptr %52, align 8
  %72 = getelementptr inbounds i8, ptr %71, i64 32
  %73 = load ptr, ptr %72, align 8
  %74 = tail call noundef nonnull align 8 dereferenceable(48) ptr %73(ptr noundef nonnull align 8 dereferenceable(48) %52) #18
  br label %_ZN5clang14TextNodeDumper11dumpPointerEPKv.exit

_ZN5clang14TextNodeDumper11dumpPointerEPKv.exit:  ; preds = %_ZN4llvm11raw_ostreamlsEc.exit.i, %70
  ret void
}